target datalayout = "e-m:e-p270:32:32-p271:32:32-p272:64:64-i64:64-i128:128-f80:128-n8:16:32:64-S128"
target triple = "x86_64-unknown-linux-gnu"

%"class.v8::IndirectHandleBase" = type { ptr }
%"class.v8::Local.28" = type { %"class.v8::LocalBase.29" }
%"class.v8::LocalBase.29" = type { %"class.v8::IndirectHandleBase" }

@_ZN4node11performance25performance_process_startE = dso_local global i64 0, align 8

; Function Attrs: mustprogress nounwind uwtable
define internal noundef double @_ZN4node11performanceL18PerformanceNowImplEv() #4 {
entry:
  %call = call i64 @uv_hrtime()
  %0 = load i64, ptr @_ZN4node11performance25performance_process_startE, align 8
  %sub = sub i64 %call, %0
  %conv = uitofp i64 %sub to double
  %div = fdiv double %conv, 1.000000e+06
  ret double %div
}

; Function Attrs: mustprogress nounwind uwtable
define internal noundef double @_ZN4node11performanceL18FastPerformanceNowEN2v85LocalINS1_5ValueEEE(ptr %receiver.coerce) #4 {
entry:
  %receiver = alloca %"class.v8::Local.28", align 8
  %coerce.dive = getelementptr inbounds %"class.v8::Local.28", ptr %receiver, i32 0, i32 0
  %coerce.dive1 = getelementptr inbounds %"class.v8::LocalBase.29", ptr %coerce.dive, i32 0, i32 0
  %coerce.dive2 = getelementptr inbounds %"class.v8::IndirectHandleBase", ptr %coerce.dive1, i32 0, i32 0
  store ptr %receiver.coerce, ptr %coerce.dive2, align 8
  %call = call noundef double @_ZN4node11performanceL18PerformanceNowImplEv()
  ret double %call
}