; Function Attrs: mustprogress nounwind uwtable
define internal noundef double @_ZN4node11performanceL18FastPerformanceNowEN2v85LocalINS1_5ValueEEE(ptr nocapture readnone %receiver.coerce) #3 {
entry:
  %call.i = tail call i64 @uv_hrtime() #20
  %0 = load i64, ptr @_ZN4node11performance25performance_process_startE, align 8
  %sub.i = sub i64 %call.i, %0
  %conv.i = uitofp i64 %sub.i to double
  %div.i = fdiv double %conv.i, 1.000000e+06
  ret double %div.i
}